target datalayout = "e-m:e-p270:32:32-p271:32:32-p272:64:64-i64:64-i128:128-f80:128-n8:16:32:64-S128"
target triple = "x86_64-pc-linux-gnu"

; Function Attrs: nounwind uwtable
define internal void @SDL_Convert51To41(ptr noundef %0, ptr noundef %1, i32 noundef %2) #0 {
  %4 = alloca ptr, align 8
  %5 = alloca ptr, align 8
  %6 = alloca i32, align 4
  %7 = alloca i32, align 4
  %8 = alloca float, align 4
  store ptr %0, ptr %4, align 8
  store ptr %1, ptr %5, align 8
  store i32 %2, ptr %6, align 4
  call void @llvm.lifetime.start.p0(i64 4, ptr %7) #7
  %9 = load i32, ptr %6, align 4
  store i32 %9, ptr %7, align 4
  br label %10

10:                                               ; preds = %50, %3
  %11 = load i32, ptr %7, align 4
  %12 = icmp ne i32 %11, 0
  br i1 %12, label %13, label %57

13:                                               ; preds = %10
  call void @llvm.lifetime.start.p0(i64 4, ptr %8) #7
  %14 = load ptr, ptr %5, align 8
  %15 = getelementptr inbounds float, ptr %14, i64 2
  %16 = load float, ptr %15, align 4
  store float %16, ptr %8, align 4
  %17 = load ptr, ptr %5, align 8
  %18 = getelementptr inbounds float, ptr %17, i64 0
  %19 = load float, ptr %18, align 4
  %20 = load float, ptr %8, align 4
  %21 = fmul float %20, 0x3FDA7EF9E0000000
  %22 = call float @llvm.fmuladd.f32(float %19, float 0x3FE2C08320000000, float %21)
  %23 = load ptr, ptr %4, align 8
  %24 = getelementptr inbounds float, ptr %23, i64 0
  store float %22, ptr %24, align 4
  %25 = load ptr, ptr %5, align 8
  %26 = getelementptr inbounds float, ptr %25, i64 1
  %27 = load float, ptr %26, align 4
  %28 = load float, ptr %8, align 4
  %29 = fmul float %28, 0x3FDA7EF9E0000000
  %30 = call float @llvm.fmuladd.f32(float %27, float 0x3FE2C08320000000, float %29)
  %31 = load ptr, ptr %4, align 8
  %32 = getelementptr inbounds float, ptr %31, i64 1
  store float %30, ptr %32, align 4
  %33 = load ptr, ptr %5, align 8
  %34 = getelementptr inbounds float, ptr %33, i64 3
  %35 = load float, ptr %34, align 4
  %36 = load ptr, ptr %4, align 8
  %37 = getelementptr inbounds float, ptr %36, i64 2
  store float %35, ptr %37, align 4
  %38 = load ptr, ptr %5, align 8
  %39 = getelementptr inbounds float, ptr %38, i64 4
  %40 = load float, ptr %39, align 4
  %41 = fmul float %40, 0x3FE2C08320000000
  %42 = load ptr, ptr %4, align 8
  %43 = getelementptr inbounds float, ptr %42, i64 3
  store float %41, ptr %43, align 4
  %44 = load ptr, ptr %5, align 8
  %45 = getelementptr inbounds float, ptr %44, i64 5
  %46 = load float, ptr %45, align 4
  %47 = fmul float %46, 0x3FE2C08320000000
  %48 = load ptr, ptr %4, align 8
  %49 = getelementptr inbounds float, ptr %48, i64 4
  store float %47, ptr %49, align 4
  call void @llvm.lifetime.end.p0(i64 4, ptr %8) #7
  br label %50

50:                                               ; preds = %13
  %51 = load i32, ptr %7, align 4
  %52 = add nsw i32 %51, -1
  store i32 %52, ptr %7, align 4
  %53 = load ptr, ptr %5, align 8
  %54 = getelementptr inbounds float, ptr %53, i64 6
  store ptr %54, ptr %5, align 8
  %55 = load ptr, ptr %4, align 8
  %56 = getelementptr inbounds float, ptr %55, i64 5
  store ptr %56, ptr %4, align 8
  br label %10, !llvm.loop !83

57:                                               ; preds = %10
  call void @llvm.lifetime.end.p0(i64 4, ptr %7) #7
  ret void
}