; Function Attrs: nofree norecurse nosync nounwind memory(argmem: readwrite) uwtable
define internal void @SDL_Convert51To41(ptr noundef writeonly captures(none) %0, ptr noundef readonly captures(none) %1, i32 noundef %2) #5 {
  %.not19 = icmp eq i32 %2, 0
  br i1 %.not19, label %._crit_edge, label %.lr.ph

.lr.ph:                                           ; preds = %3, %.lr.ph
  %.022 = phi ptr [ %26, %.lr.ph ], [ %0, %3 ]
  %.01721 = phi i32 [ %24, %.lr.ph ], [ %2, %3 ]
  %.01820 = phi ptr [ %25, %.lr.ph ], [ %1, %3 ]
  %4 = getelementptr inbounds nuw i8, ptr %.01820, i64 8
  %5 = load float, ptr %4, align 4
  %6 = load float, ptr %.01820, align 4
  %7 = fmul float %5, 0x3FDA7EF9E0000000
  %8 = tail call float @llvm.fmuladd.f32(float %6, float 0x3FE2C08320000000, float %7)
  store float %8, ptr %.022, align 4
  %9 = getelementptr inbounds nuw i8, ptr %.01820, i64 4
  %10 = load float, ptr %9, align 4
  %11 = tail call float @llvm.fmuladd.f32(float %10, float 0x3FE2C08320000000, float %7)
  %12 = getelementptr inbounds nuw i8, ptr %.022, i64 4
  store float %11, ptr %12, align 4
  %13 = getelementptr inbounds nuw i8, ptr %.01820, i64 12
  %14 = load float, ptr %13, align 4
  %15 = getelementptr inbounds nuw i8, ptr %.022, i64 8
  store float %14, ptr %15, align 4
  %16 = getelementptr inbounds nuw i8, ptr %.01820, i64 16
  %17 = load float, ptr %16, align 4
  %18 = fmul float %17, 0x3FE2C08320000000
  %19 = getelementptr inbounds nuw i8, ptr %.022, i64 12
  store float %18, ptr %19, align 4
  %20 = getelementptr inbounds nuw i8, ptr %.01820, i64 20
  %21 = load float, ptr %20, align 4
  %22 = fmul float %21, 0x3FE2C08320000000
  %23 = getelementptr inbounds nuw i8, ptr %.022, i64 16
  store float %22, ptr %23, align 4
  %24 = add nsw i32 %.01721, -1
  %25 = getelementptr inbounds nuw i8, ptr %.01820, i64 24
  %26 = getelementptr inbounds nuw i8, ptr %.022, i64 20
  %.not = icmp eq i32 %24, 0
  br i1 %.not, label %._crit_edge, label %.lr.ph, !llvm.loop !89

._crit_edge:                                      ; preds = %.lr.ph, %3
  ret void
}